; Function Attrs: nounwind uwtable
define ptr @l_Lean_Server_Completion_forEligibleDeclsM___at___private_Lean_Server_Completion_CompletionCollectors_0__Lean_Server_Completion_forEligibleDeclsWithCancellationM___spec__1___rarg(ptr noundef %0, ptr noundef %1, ptr readnone captures(none) %2, ptr noundef %3, ptr noundef %4, ptr noundef %5) local_unnamed_addr #0 {
  %7 = getelementptr inbounds nuw i8, ptr %1, i64 8
  %8 = load ptr, ptr %7, align 8, !tbaa !4
  %9 = ptrtoint ptr %8 to i64
  %10 = and i64 %9, 1
  %.not = icmp eq i64 %10, 0
  br i1 %.not, label %11, label %lean_inc.exit30

11:                                               ; preds = %6
  %.val.i = load i32, ptr %8, align 4, !tbaa !8
  %12 = icmp sgt i32 %.val.i, 0
  br i1 %12, label %13, label %15, !prof !11

13:                                               ; preds = %11
  %14 = add nuw i32 %.val.i, 1
  store i32 %14, ptr %8, align 4, !tbaa !8
  br label %lean_inc.exit30

15:                                               ; preds = %11
  %.not.i31 = icmp eq i32 %.val.i, 0
  br i1 %.not.i31, label %lean_inc.exit30, label %16

16:                                               ; preds = %15
  tail call void @lean_inc_ref_cold(ptr noundef nonnull %8) #5
  br label %lean_inc.exit30

lean_inc.exit30:                                  ; preds = %16, %15, %13, %6
  %17 = ptrtoint ptr %1 to i64
  %18 = and i64 %17, 1
  %.not45 = icmp eq i64 %18, 0
  br i1 %.not45, label %19, label %lean_dec.exit

19:                                               ; preds = %lean_inc.exit30
  %20 = load i32, ptr %1, align 4, !tbaa !8
  %21 = icmp sgt i32 %20, 1
  br i1 %21, label %22, label %24, !prof !11

22:                                               ; preds = %19
  %23 = add nsw i32 %20, -1
  store i32 %23, ptr %1, align 4, !tbaa !8
  br label %lean_dec.exit

24:                                               ; preds = %19
  %.not.i = icmp eq i32 %20, 0
  br i1 %.not.i, label %lean_dec.exit, label %25

25:                                               ; preds = %24
  tail call void @lean_dec_ref_cold(ptr noundef nonnull %1) #5
  br label %lean_dec.exit

lean_dec.exit:                                    ; preds = %25, %24, %22, %lean_inc.exit30
  %26 = getelementptr inbounds nuw i8, ptr %0, i64 16
  %27 = load ptr, ptr %26, align 8, !tbaa !4
  %28 = ptrtoint ptr %27 to i64
  %29 = and i64 %28, 1
  %.not46 = icmp eq i64 %29, 0
  br i1 %.not46, label %30, label %lean_inc.exit29

30:                                               ; preds = %lean_dec.exit
  %.val.i32 = load i32, ptr %27, align 4, !tbaa !8
  %31 = icmp sgt i32 %.val.i32, 0
  br i1 %31, label %32, label %34, !prof !11

32:                                               ; preds = %30
  %33 = add nuw i32 %.val.i32, 1
  store i32 %33, ptr %27, align 4, !tbaa !8
  br label %lean_inc.exit29

34:                                               ; preds = %30
  %.not.i33 = icmp eq i32 %.val.i32, 0
  br i1 %.not.i33, label %lean_inc.exit29, label %35

35:                                               ; preds = %34
  tail call void @lean_inc_ref_cold(ptr noundef nonnull %27) #5
  br label %lean_inc.exit29

lean_inc.exit29:                                  ; preds = %35, %34, %32, %lean_dec.exit
  %36 = ptrtoint ptr %0 to i64
  %37 = and i64 %36, 1
  %.not47 = icmp eq i64 %37, 0
  br i1 %.not47, label %38, label %lean_inc.exit28

38:                                               ; preds = %lean_inc.exit29
  %.val.i35 = load i32, ptr %0, align 4, !tbaa !8
  %39 = icmp sgt i32 %.val.i35, 0
  br i1 %39, label %40, label %42, !prof !11

40:                                               ; preds = %38
  %41 = add nuw i32 %.val.i35, 1
  store i32 %41, ptr %0, align 4, !tbaa !8
  br label %lean_inc.exit28

42:                                               ; preds = %38
  %.not.i36 = icmp eq i32 %.val.i35, 0
  br i1 %.not.i36, label %lean_inc.exit28, label %43

43:                                               ; preds = %42
  tail call void @lean_inc_ref_cold(ptr noundef nonnull %0) #5
  br label %lean_inc.exit28

lean_inc.exit28:                                  ; preds = %43, %42, %40, %lean_inc.exit29
  tail call void @lean_inc_heartbeat() #5
  %44 = tail call noalias ptr @mi_malloc_small(i64 noundef 40) #5
  %45 = icmp eq ptr %44, null
  br i1 %45, label %46, label %lean_alloc_closure.exit

46:                                               ; preds = %lean_inc.exit28
  tail call void @lean_internal_panic_out_of_memory() #6
  unreachable

lean_alloc_closure.exit:                          ; preds = %lean_inc.exit28
  %47 = getelementptr inbounds nuw i8, ptr %44, i64 4
  store i32 1, ptr %44, align 4, !tbaa !8
  store i32 -184549336, ptr %47, align 4
  %48 = getelementptr inbounds nuw i8, ptr %44, i64 8
  store ptr @l_Lean_Server_Completion_forEligibleDeclsM___at___private_Lean_Server_Completion_CompletionCollectors_0__Lean_Server_Completion_forEligibleDeclsWithCancellationM___spec__1___rarg___lambda__1, ptr %48, align 8, !tbaa !4
  %49 = getelementptr inbounds nuw i8, ptr %44, i64 16
  store i16 3, ptr %49, align 8, !tbaa !16
  %50 = getelementptr inbounds nuw i8, ptr %44, i64 18
  store i16 2, ptr %50, align 2, !tbaa !16
  %51 = getelementptr inbounds nuw i8, ptr %44, i64 24
  store ptr %0, ptr %51, align 8, !tbaa !4
  %52 = getelementptr inbounds nuw i8, ptr %44, i64 32
  store ptr %5, ptr %52, align 8, !tbaa !4
  br i1 %.not46, label %53, label %lean_inc.exit27

53:                                               ; preds = %lean_alloc_closure.exit
  %.val.i38 = load i32, ptr %27, align 4, !tbaa !8
  %54 = icmp sgt i32 %.val.i38, 0
  br i1 %54, label %55, label %57, !prof !11

55:                                               ; preds = %53
  %56 = add nuw i32 %.val.i38, 1
  store i32 %56, ptr %27, align 4, !tbaa !8
  br label %60

57:                                               ; preds = %53
  %.not.i39 = icmp eq i32 %.val.i38, 0
  br i1 %.not.i39, label %60, label %58

58:                                               ; preds = %57
  tail call void @lean_inc_ref_cold(ptr noundef nonnull %27) #5
  br label %60

lean_inc.exit27:                                  ; preds = %lean_alloc_closure.exit
  %59 = tail call ptr @lean_apply_4(ptr noundef %27, ptr noundef nonnull inttoptr (i64 1 to ptr), ptr noundef nonnull inttoptr (i64 1 to ptr), ptr noundef %8, ptr noundef nonnull %44) #5
  br label %lean_inc.exit

60:                                               ; preds = %58, %57, %55
  %61 = tail call ptr @lean_apply_4(ptr noundef nonnull %27, ptr noundef nonnull inttoptr (i64 1 to ptr), ptr noundef nonnull inttoptr (i64 1 to ptr), ptr noundef %8, ptr noundef nonnull %44) #5
  %.val.i41 = load i32, ptr %27, align 4, !tbaa !8
  %62 = icmp sgt i32 %.val.i41, 0
  br i1 %62, label %63, label %65, !prof !11

63:                                               ; preds = %60
  %64 = add nuw i32 %.val.i41, 1
  store i32 %64, ptr %27, align 4, !tbaa !8
  br label %lean_inc.exit

65:                                               ; preds = %60
  %.not.i42 = icmp eq i32 %.val.i41, 0
  br i1 %.not.i42, label %lean_inc.exit, label %66

66:                                               ; preds = %65
  tail call void @lean_inc_ref_cold(ptr noundef nonnull %27) #5
  br label %lean_inc.exit

lean_inc.exit:                                    ; preds = %66, %65, %63, %lean_inc.exit27
  %67 = phi ptr [ %59, %lean_inc.exit27 ], [ %61, %63 ], [ %61, %65 ], [ %61, %66 ]
  tail call void @lean_inc_heartbeat() #5
  %68 = tail call noalias ptr @mi_malloc_small(i64 noundef 56) #5
  %69 = icmp eq ptr %68, null
  br i1 %69, label %70, label %lean_alloc_closure.exit44

70:                                               ; preds = %lean_inc.exit
  tail call void @lean_internal_panic_out_of_memory() #6
  unreachable

lean_alloc_closure.exit44:                        ; preds = %lean_inc.exit
  %71 = getelementptr inbounds nuw i8, ptr %68, i64 4
  store i32 1, ptr %68, align 4, !tbaa !8
  store i32 -184549320, ptr %71, align 4
  %72 = getelementptr inbounds nuw i8, ptr %68, i64 8
  store ptr @l_Lean_Server_Completion_forEligibleDeclsM___at___private_Lean_Server_Completion_CompletionCollectors_0__Lean_Server_Completion_forEligibleDeclsWithCancellationM___spec__1___rarg___lambda__8, ptr %72, align 8, !tbaa !4
  %73 = getelementptr inbounds nuw i8, ptr %68, i64 16
  store i16 5, ptr %73, align 8, !tbaa !16
  %74 = getelementptr inbounds nuw i8, ptr %68, i64 18
  store i16 4, ptr %74, align 2, !tbaa !16
  %75 = getelementptr inbounds nuw i8, ptr %68, i64 24
  store ptr %3, ptr %75, align 8, !tbaa !4
  %76 = getelementptr inbounds nuw i8, ptr %68, i64 32
  store ptr %0, ptr %76, align 8, !tbaa !4
  %77 = getelementptr inbounds nuw i8, ptr %68, i64 40
  store ptr %27, ptr %77, align 8, !tbaa !4
  %78 = getelementptr inbounds nuw i8, ptr %68, i64 48
  store ptr %4, ptr %78, align 8, !tbaa !4
  %79 = tail call ptr @lean_apply_4(ptr noundef %27, ptr noundef nonnull inttoptr (i64 1 to ptr), ptr noundef nonnull inttoptr (i64 1 to ptr), ptr noundef %67, ptr noundef nonnull %68) #5
  ret ptr %79
}